target datalayout = "e-m:e-p270:32:32-p271:32:32-p272:64:64-i64:64-i128:128-f80:128-n8:16:32:64-S128"
target triple = "x86_64-pc-linux-gnu"

%struct.VVCLocalContext = type { i8, i8, i8, i8, i32, i32, [4 x i8], [3276800 x i8], [16384 x i16], [16384 x i16], [16384 x i16], [32768 x i8], [332800 x i8], [368640 x i8], [368640 x i8], [17424 x i32], %struct.anon, %struct.anon.0, ptr, [2 x [1024 x %struct.ReconstructedArea]], [2 x i32], %struct.NeighbourAvailable, i32, ptr, ptr, ptr, ptr }
%struct.anon = type { i32, i8, i32, i32, i32, [3 x i32], i32, i32, i32, i32, i32, i32 }
%struct.anon.0 = type { i32, i32, i32 }
%struct.ReconstructedArea = type { i32, i32, i32, i32 }
%struct.NeighbourAvailable = type { i32, i32, i32, i32, i32 }
%struct.VVCFrameContext = type { ptr, [17 x %struct.VVCFrame], ptr, ptr, %struct.VVCFrameParamSets, ptr, i32, i32, ptr, %struct.VVCDSPContext, %struct.VideoDSPContext, ptr, i64, ptr, ptr, ptr, ptr, %struct.anon.1 }
%struct.VVCFrame = type { ptr, ptr, ptr, ptr, ptr, ptr, i32, i32, i32, %struct.VVCWindow, i32, i32, ptr, ptr, i16, i8, ptr }
%struct.VVCWindow = type { i16, i16, i16, i16 }
%struct.VVCFrameParamSets = type { ptr, ptr, %struct.VVCPH, [8 x ptr], %struct.VVCLMCS, ptr }
%struct.VVCPH = type { ptr, ptr, i32, i32, i8, [3 x i16], i8, [3 x i16], %struct.PredWeightTable }
%struct.PredWeightTable = type { [2 x i8], [2 x i8], [2 x [2 x [15 x i8]]], [2 x [3 x [15 x i16]]], [2 x [3 x [15 x i16]]] }
%struct.VVCLMCS = type { i8, i8, %union.anon, %union.anon, [17 x i16], [16 x i16] }
%union.anon = type { [4096 x i16] }
%struct.VVCDSPContext = type { %struct.VVCInterDSPContext, %struct.VVCIntraDSPContext, %struct.VVCItxDSPContext, %struct.VVCLMCSDSPContext, %struct.VVCLFDSPContext, %struct.VVCSAODSPContext, %struct.VVCALFDSPContext }
%struct.VVCInterDSPContext = type { [2 x [7 x [2 x [2 x ptr]]]], [2 x [7 x [2 x [2 x ptr]]]], [2 x [7 x [2 x [2 x ptr]]]], [2 x [7 x ptr]], [2 x [7 x ptr]], [2 x [7 x ptr]], ptr, ptr, ptr, ptr, ptr, ptr, ptr, ptr, ptr, ptr, ptr, [2 x [2 x ptr]] }
%struct.VVCIntraDSPContext = type { ptr, ptr, ptr, ptr, ptr, ptr, ptr, ptr, ptr, ptr }
%struct.VVCItxDSPContext = type { ptr, ptr, [3 x [6 x ptr]], ptr, ptr }
%struct.VVCLMCSDSPContext = type { ptr }
%struct.VVCLFDSPContext = type { [2 x ptr], [2 x ptr], [2 x ptr] }
%struct.VVCSAODSPContext = type { [9 x ptr], [9 x ptr], [2 x ptr] }
%struct.VVCALFDSPContext = type { [2 x ptr], ptr, ptr, ptr }
%struct.VideoDSPContext = type { ptr, ptr }
%struct.anon.1 = type { ptr, ptr, ptr, ptr, [2 x ptr], [2 x ptr], [2 x ptr], [2 x ptr], [2 x ptr], [3 x ptr], ptr, ptr, [2 x ptr], ptr, ptr, [2 x ptr], ptr, ptr, ptr, [2 x ptr], ptr, [3 x ptr], ptr, [2 x ptr], [2 x ptr], [2 x ptr], [2 x [3 x ptr]], [2 x ptr], [2 x ptr], [3 x ptr], [3 x ptr], [3 x [2 x ptr]], [3 x [2 x ptr]], ptr, ptr, ptr, [3 x ptr], %struct.anon.2 }
%struct.anon.2 = type { i32, i32, i32, i32, i32, i32, i32, i32, i32, i32, i32, i32 }
%struct.VVCSPS = type { ptr, [3 x i8], [3 x i8], i32, i8, i32, i8, i8, i8, i16, i8, i8, i8, i8, i8, i8, i8, i8, [5 x i32], i8, i8, [3 x [111 x i8]] }
%struct.CodingUnit = type { i32, i32, i32, i32, i32, i32, i32, i8, i8, i8, i8, i32, i32, i8, i8, i8, i8, i8, i32, i32, i32, i32, i32, i32, [3 x i32], [3 x i32], %struct.anon.3, [4 x i8], [3 x %struct.Palette], [4 x i8], %struct.PredictionUnit, ptr }
%struct.anon.3 = type { ptr, ptr }
%struct.Palette = type { i8, [63 x i16] }
%struct.PredictionUnit = type { i8, i8, i8, i8, i8, i8, [2 x %struct.MvField], i32, %struct.MotionInfo, i8, i8, [2 x [16 x i16]], [2 x [16 x i16]], [2 x i32], [4 x i8] }
%struct.MvField = type { [2 x %struct.Mv], [2 x i8], i8, i8, i8, i8 }
%struct.Mv = type { i32, i32 }
%struct.MotionInfo = type { i32, [2 x i8], i8, i8, i32, [2 x [3 x %struct.Mv]], i32, i32 }
%struct.AVFrame = type { [8 x ptr], [8 x i32], ptr, i32, i32, i32, i32, i32, %struct.AVRational, i64, i64, %struct.AVRational, i32, ptr, i32, i32, [8 x ptr], ptr, i32, ptr, i32, i32, i32, i32, i32, i32, i32, i64, ptr, i32, ptr, ptr, i64, i64, i64, i64, ptr, %struct.AVChannelLayout, i64 }
%struct.AVRational = type { i32, i32 }
%struct.AVChannelLayout = type { i32, i32, %union.anon.4, ptr }
%union.anon.4 = type { i64 }

; Function Attrs: nounwind uwtable
define internal void @intra_block_copy(ptr noundef %0, i32 noundef %1) #0 {
  %3 = alloca ptr, align 8
  %4 = alloca i32, align 4
  %5 = alloca ptr, align 8
  %6 = alloca ptr, align 8
  %7 = alloca ptr, align 8
  %8 = alloca ptr, align 8
  %9 = alloca ptr, align 8
  %10 = alloca i32, align 4
  %11 = alloca i32, align 4
  %12 = alloca i32, align 4
  %13 = alloca i32, align 4
  %14 = alloca i32, align 4
  %15 = alloca i32, align 4
  %16 = alloca i32, align 4
  %17 = alloca i32, align 4
  %18 = alloca i32, align 4
  %19 = alloca i32, align 4
  %20 = alloca i32, align 4
  %21 = alloca ptr, align 8
  %22 = alloca ptr, align 8
  store ptr %0, ptr %3, align 8, !tbaa !4
  store i32 %1, ptr %4, align 4, !tbaa !77
  call void @llvm.lifetime.start.p0(i64 8, ptr %5) #8
  %23 = load ptr, ptr %3, align 8, !tbaa !4
  %24 = getelementptr inbounds nuw %struct.VVCLocalContext, ptr %23, i32 0, i32 18
  %25 = load ptr, ptr %24, align 8, !tbaa !89
  store ptr %25, ptr %5, align 8, !tbaa !90
  call void @llvm.lifetime.start.p0(i64 8, ptr %6) #8
  %26 = load ptr, ptr %5, align 8, !tbaa !90
  %27 = getelementptr inbounds nuw %struct.CodingUnit, ptr %26, i32 0, i32 30
  store ptr %27, ptr %6, align 8, !tbaa !159
  call void @llvm.lifetime.start.p0(i64 8, ptr %7) #8
  %28 = load ptr, ptr %3, align 8, !tbaa !4
  %29 = getelementptr inbounds nuw %struct.VVCLocalContext, ptr %28, i32 0, i32 24
  %30 = load ptr, ptr %29, align 8, !tbaa !13
  store ptr %30, ptr %7, align 8, !tbaa !117
  call void @llvm.lifetime.start.p0(i64 8, ptr %8) #8
  %31 = load ptr, ptr %7, align 8, !tbaa !117
  %32 = getelementptr inbounds nuw %struct.VVCFrameContext, ptr %31, i32 0, i32 4
  %33 = getelementptr inbounds nuw %struct.VVCFrameParamSets, ptr %32, i32 0, i32 0
  %34 = load ptr, ptr %33, align 8, !tbaa !24
  store ptr %34, ptr %8, align 8, !tbaa !60
  call void @llvm.lifetime.start.p0(i64 8, ptr %9) #8
  %35 = load ptr, ptr %6, align 8, !tbaa !159
  %36 = getelementptr inbounds nuw %struct.PredictionUnit, ptr %35, i32 0, i32 8
  %37 = getelementptr inbounds nuw %struct.MotionInfo, ptr %36, i32 0, i32 5
  %38 = getelementptr inbounds [2 x [3 x %struct.Mv]], ptr %37, i64 0, i64 0
  %39 = getelementptr inbounds [3 x %struct.Mv], ptr %38, i64 0, i64 0
  store ptr %39, ptr %9, align 8, !tbaa !161
  call void @llvm.lifetime.start.p0(i64 4, ptr %10) #8
  %40 = load ptr, ptr %8, align 8, !tbaa !60
  %41 = getelementptr inbounds nuw %struct.VVCSPS, ptr %40, i32 0, i32 1
  %42 = load i32, ptr %4, align 4, !tbaa !77
  %43 = sext i32 %42 to i64
  %44 = getelementptr inbounds [3 x i8], ptr %41, i64 0, i64 %43
  %45 = load i8, ptr %44, align 1, !tbaa !80
  %46 = zext i8 %45 to i32
  store i32 %46, ptr %10, align 4, !tbaa !77
  call void @llvm.lifetime.start.p0(i64 4, ptr %11) #8
  %47 = load ptr, ptr %8, align 8, !tbaa !60
  %48 = getelementptr inbounds nuw %struct.VVCSPS, ptr %47, i32 0, i32 2
  %49 = load i32, ptr %4, align 4, !tbaa !77
  %50 = sext i32 %49 to i64
  %51 = getelementptr inbounds [3 x i8], ptr %48, i64 0, i64 %50
  %52 = load i8, ptr %51, align 1, !tbaa !80
  %53 = zext i8 %52 to i32
  store i32 %53, ptr %11, align 4, !tbaa !77
  call void @llvm.lifetime.start.p0(i64 4, ptr %12) #8
  %54 = load ptr, ptr %8, align 8, !tbaa !60
  %55 = getelementptr inbounds nuw %struct.VVCSPS, ptr %54, i32 0, i32 4
  %56 = load i8, ptr %55, align 4, !tbaa !137
  %57 = zext i8 %56 to i32
  store i32 %57, ptr %12, align 4, !tbaa !77
  call void @llvm.lifetime.start.p0(i64 4, ptr %13) #8
  %58 = load ptr, ptr %5, align 8, !tbaa !90
  %59 = getelementptr inbounds nuw %struct.CodingUnit, ptr %58, i32 0, i32 1
  %60 = load i32, ptr %59, align 4, !tbaa !126
  %61 = load i32, ptr %10, align 4, !tbaa !77
  %62 = ashr i32 %60, %61
  %63 = load ptr, ptr %9, align 8, !tbaa !161
  %64 = getelementptr inbounds nuw %struct.Mv, ptr %63, i32 0, i32 0
  %65 = load i32, ptr %64, align 4, !tbaa !163
  %66 = load i32, ptr %10, align 4, !tbaa !77
  %67 = add nsw i32 4, %66
  %68 = ashr i32 %65, %67
  %69 = add nsw i32 %62, %68
  %70 = load ptr, ptr %7, align 8, !tbaa !117
  %71 = getelementptr inbounds nuw %struct.VVCFrameContext, ptr %70, i32 0, i32 17
  %72 = getelementptr inbounds nuw %struct.anon.1, ptr %71, i32 0, i32 37
  %73 = getelementptr inbounds nuw %struct.anon.2, ptr %72, i32 0, i32 11
  %74 = load i32, ptr %73, align 4, !tbaa !156
  %75 = load i32, ptr %10, align 4, !tbaa !77
  %76 = ashr i32 %74, %75
  %77 = sub nsw i32 %76, 1
  %78 = and i32 %69, %77
  store i32 %78, ptr %13, align 4, !tbaa !77
  call void @llvm.lifetime.start.p0(i64 4, ptr %14) #8
  %79 = load ptr, ptr %5, align 8, !tbaa !90
  %80 = getelementptr inbounds nuw %struct.CodingUnit, ptr %79, i32 0, i32 2
  %81 = load i32, ptr %80, align 8, !tbaa !127
  %82 = load i32, ptr %11, align 4, !tbaa !77
  %83 = ashr i32 %81, %82
  %84 = load ptr, ptr %9, align 8, !tbaa !161
  %85 = getelementptr inbounds nuw %struct.Mv, ptr %84, i32 0, i32 1
  %86 = load i32, ptr %85, align 4, !tbaa !165
  %87 = load i32, ptr %11, align 4, !tbaa !77
  %88 = add nsw i32 4, %87
  %89 = ashr i32 %86, %88
  %90 = add nsw i32 %83, %89
  %91 = load ptr, ptr %8, align 8, !tbaa !60
  %92 = getelementptr inbounds nuw %struct.VVCSPS, ptr %91, i32 0, i32 8
  %93 = load i8, ptr %92, align 2, !tbaa !118
  %94 = zext i8 %93 to i32
  %95 = shl i32 1, %94
  %96 = load i32, ptr %11, align 4, !tbaa !77
  %97 = ashr i32 %95, %96
  %98 = sub nsw i32 %97, 1
  %99 = and i32 %90, %98
  store i32 %99, ptr %14, align 4, !tbaa !77
  call void @llvm.lifetime.start.p0(i64 4, ptr %15) #8
  %100 = load ptr, ptr %5, align 8, !tbaa !90
  %101 = getelementptr inbounds nuw %struct.CodingUnit, ptr %100, i32 0, i32 3
  %102 = load i32, ptr %101, align 4, !tbaa !128
  %103 = load i32, ptr %10, align 4, !tbaa !77
  %104 = ashr i32 %102, %103
  store i32 %104, ptr %15, align 4, !tbaa !77
  call void @llvm.lifetime.start.p0(i64 4, ptr %16) #8
  %105 = load ptr, ptr %5, align 8, !tbaa !90
  %106 = getelementptr inbounds nuw %struct.CodingUnit, ptr %105, i32 0, i32 4
  %107 = load i32, ptr %106, align 8, !tbaa !129
  %108 = load i32, ptr %11, align 4, !tbaa !77
  %109 = ashr i32 %107, %108
  store i32 %109, ptr %16, align 4, !tbaa !77
  call void @llvm.lifetime.start.p0(i64 4, ptr %17) #8
  %110 = load ptr, ptr %7, align 8, !tbaa !117
  %111 = getelementptr inbounds nuw %struct.VVCFrameContext, ptr %110, i32 0, i32 17
  %112 = getelementptr inbounds nuw %struct.anon.1, ptr %111, i32 0, i32 37
  %113 = getelementptr inbounds nuw %struct.anon.2, ptr %112, i32 0, i32 11
  %114 = load i32, ptr %113, align 4, !tbaa !156
  %115 = load i32, ptr %10, align 4, !tbaa !77
  %116 = ashr i32 %114, %115
  store i32 %116, ptr %17, align 4, !tbaa !77
  call void @llvm.lifetime.start.p0(i64 4, ptr %18) #8
  %117 = load i32, ptr %15, align 4, !tbaa !77
  %118 = load i32, ptr %17, align 4, !tbaa !77
  %119 = load i32, ptr %13, align 4, !tbaa !77
  %120 = sub nsw i32 %118, %119
  %121 = icmp sgt i32 %117, %120
  br i1 %121, label %122, label %126

122:                                              ; preds = %2
  %123 = load i32, ptr %17, align 4, !tbaa !77
  %124 = load i32, ptr %13, align 4, !tbaa !77
  %125 = sub nsw i32 %123, %124
  br label %128

126:                                              ; preds = %2
  %127 = load i32, ptr %15, align 4, !tbaa !77
  br label %128

128:                                              ; preds = %126, %122
  %129 = phi i32 [ %125, %122 ], [ %127, %126 ]
  store i32 %129, ptr %18, align 4, !tbaa !77
  call void @llvm.lifetime.start.p0(i64 4, ptr %19) #8
  %130 = load i32, ptr %17, align 4, !tbaa !77
  %131 = load i32, ptr %12, align 4, !tbaa !77
  %132 = shl i32 %130, %131
  store i32 %132, ptr %19, align 4, !tbaa !77
  call void @llvm.lifetime.start.p0(i64 4, ptr %20) #8
  %133 = load ptr, ptr %7, align 8, !tbaa !117
  %134 = getelementptr inbounds nuw %struct.VVCFrameContext, ptr %133, i32 0, i32 2
  %135 = load ptr, ptr %134, align 8, !tbaa !141
  %136 = getelementptr inbounds nuw %struct.AVFrame, ptr %135, i32 0, i32 1
  %137 = load i32, ptr %4, align 4, !tbaa !77
  %138 = sext i32 %137 to i64
  %139 = getelementptr inbounds [8 x i32], ptr %136, i64 0, i64 %138
  %140 = load i32, ptr %139, align 4, !tbaa !77
  store i32 %140, ptr %20, align 4, !tbaa !77
  call void @llvm.lifetime.start.p0(i64 8, ptr %21) #8
  %141 = load ptr, ptr %7, align 8, !tbaa !117
  %142 = getelementptr inbounds nuw %struct.VVCFrameContext, ptr %141, i32 0, i32 17
  %143 = getelementptr inbounds nuw %struct.anon.1, ptr %142, i32 0, i32 36
  %144 = load i32, ptr %4, align 4, !tbaa !77
  %145 = sext i32 %144 to i64
  %146 = getelementptr inbounds [3 x ptr], ptr %143, i64 0, i64 %145
  %147 = load ptr, ptr %146, align 8, !tbaa !143
  %148 = load i32, ptr %13, align 4, !tbaa !77
  %149 = load i32, ptr %12, align 4, !tbaa !77
  %150 = shl i32 %148, %149
  %151 = sext i32 %150 to i64
  %152 = getelementptr inbounds i8, ptr %147, i64 %151
  %153 = load i32, ptr %14, align 4, !tbaa !77
  %154 = load ptr, ptr %5, align 8, !tbaa !90
  %155 = getelementptr inbounds nuw %struct.CodingUnit, ptr %154, i32 0, i32 2
  %156 = load i32, ptr %155, align 8, !tbaa !127
  %157 = load ptr, ptr %8, align 8, !tbaa !60
  %158 = getelementptr inbounds nuw %struct.VVCSPS, ptr %157, i32 0, i32 9
  %159 = load i16, ptr %158, align 8, !tbaa !157
  %160 = zext i16 %159 to i32
  %161 = sub nsw i32 %160, 1
  %162 = xor i32 %161, -1
  %163 = and i32 %156, %162
  %164 = load i32, ptr %11, align 4, !tbaa !77
  %165 = ashr i32 %163, %164
  %166 = add nsw i32 %153, %165
  %167 = load i32, ptr %19, align 4, !tbaa !77
  %168 = mul nsw i32 %166, %167
  %169 = sext i32 %168 to i64
  %170 = getelementptr inbounds i8, ptr %152, i64 %169
  store ptr %170, ptr %21, align 8, !tbaa !143
  call void @llvm.lifetime.start.p0(i64 8, ptr %22) #8
  %171 = load ptr, ptr %7, align 8, !tbaa !117
  %172 = getelementptr inbounds nuw %struct.VVCFrameContext, ptr %171, i32 0, i32 2
  %173 = load ptr, ptr %172, align 8, !tbaa !141
  %174 = getelementptr inbounds nuw %struct.AVFrame, ptr %173, i32 0, i32 0
  %175 = load i32, ptr %4, align 4, !tbaa !77
  %176 = sext i32 %175 to i64
  %177 = getelementptr inbounds [8 x ptr], ptr %174, i64 0, i64 %176
  %178 = load ptr, ptr %177, align 8, !tbaa !143
  %179 = load ptr, ptr %5, align 8, !tbaa !90
  %180 = getelementptr inbounds nuw %struct.CodingUnit, ptr %179, i32 0, i32 2
  %181 = load i32, ptr %180, align 8, !tbaa !127
  %182 = load ptr, ptr %7, align 8, !tbaa !117
  %183 = getelementptr inbounds nuw %struct.VVCFrameContext, ptr %182, i32 0, i32 4
  %184 = getelementptr inbounds nuw %struct.VVCFrameParamSets, ptr %183, i32 0, i32 0
  %185 = load ptr, ptr %184, align 8, !tbaa !24
  %186 = getelementptr inbounds nuw %struct.VVCSPS, ptr %185, i32 0, i32 2
  %187 = load i32, ptr %4, align 4, !tbaa !77
  %188 = sext i32 %187 to i64
  %189 = getelementptr inbounds [3 x i8], ptr %186, i64 0, i64 %188
  %190 = load i8, ptr %189, align 1, !tbaa !80
  %191 = zext i8 %190 to i32
  %192 = ashr i32 %181, %191
  %193 = load ptr, ptr %7, align 8, !tbaa !117
  %194 = getelementptr inbounds nuw %struct.VVCFrameContext, ptr %193, i32 0, i32 2
  %195 = load ptr, ptr %194, align 8, !tbaa !141
  %196 = getelementptr inbounds nuw %struct.AVFrame, ptr %195, i32 0, i32 1
  %197 = load i32, ptr %4, align 4, !tbaa !77
  %198 = sext i32 %197 to i64
  %199 = getelementptr inbounds [8 x i32], ptr %196, i64 0, i64 %198
  %200 = load i32, ptr %199, align 4, !tbaa !77
  %201 = mul nsw i32 %192, %200
  %202 = load ptr, ptr %5, align 8, !tbaa !90
  %203 = getelementptr inbounds nuw %struct.CodingUnit, ptr %202, i32 0, i32 1
  %204 = load i32, ptr %203, align 4, !tbaa !126
  %205 = load ptr, ptr %7, align 8, !tbaa !117
  %206 = getelementptr inbounds nuw %struct.VVCFrameContext, ptr %205, i32 0, i32 4
  %207 = getelementptr inbounds nuw %struct.VVCFrameParamSets, ptr %206, i32 0, i32 0
  %208 = load ptr, ptr %207, align 8, !tbaa !24
  %209 = getelementptr inbounds nuw %struct.VVCSPS, ptr %208, i32 0, i32 1
  %210 = load i32, ptr %4, align 4, !tbaa !77
  %211 = sext i32 %210 to i64
  %212 = getelementptr inbounds [3 x i8], ptr %209, i64 0, i64 %211
  %213 = load i8, ptr %212, align 1, !tbaa !80
  %214 = zext i8 %213 to i32
  %215 = ashr i32 %204, %214
  %216 = load ptr, ptr %7, align 8, !tbaa !117
  %217 = getelementptr inbounds nuw %struct.VVCFrameContext, ptr %216, i32 0, i32 4
  %218 = getelementptr inbounds nuw %struct.VVCFrameParamSets, ptr %217, i32 0, i32 0
  %219 = load ptr, ptr %218, align 8, !tbaa !24
  %220 = getelementptr inbounds nuw %struct.VVCSPS, ptr %219, i32 0, i32 4
  %221 = load i8, ptr %220, align 4, !tbaa !137
  %222 = zext i8 %221 to i32
  %223 = shl i32 %215, %222
  %224 = add nsw i32 %201, %223
  %225 = sext i32 %224 to i64
  %226 = getelementptr inbounds i8, ptr %178, i64 %225
  store ptr %226, ptr %22, align 8, !tbaa !143
  %227 = load ptr, ptr %22, align 8, !tbaa !143
  %228 = load i32, ptr %20, align 4, !tbaa !77
  %229 = load ptr, ptr %21, align 8, !tbaa !143
  %230 = load i32, ptr %19, align 4, !tbaa !77
  %231 = load i32, ptr %18, align 4, !tbaa !77
  %232 = load i32, ptr %12, align 4, !tbaa !77
  %233 = shl i32 %231, %232
  %234 = load i32, ptr %16, align 4, !tbaa !77
  call void @av_image_copy_plane(ptr noundef %227, i32 noundef %228, ptr noundef %229, i32 noundef %230, i32 noundef %233, i32 noundef %234)
  %235 = load i32, ptr %15, align 4, !tbaa !77
  %236 = load i32, ptr %18, align 4, !tbaa !77
  %237 = icmp sgt i32 %235, %236
  br i1 %237, label %238, label %284

238:                                              ; preds = %128
  %239 = load ptr, ptr %7, align 8, !tbaa !117
  %240 = getelementptr inbounds nuw %struct.VVCFrameContext, ptr %239, i32 0, i32 17
  %241 = getelementptr inbounds nuw %struct.anon.1, ptr %240, i32 0, i32 36
  %242 = load i32, ptr %4, align 4, !tbaa !77
  %243 = sext i32 %242 to i64
  %244 = getelementptr inbounds [3 x ptr], ptr %241, i64 0, i64 %243
  %245 = load ptr, ptr %244, align 8, !tbaa !143
  %246 = load i32, ptr %12, align 4, !tbaa !77
  %247 = shl i32 0, %246
  %248 = sext i32 %247 to i64
  %249 = getelementptr inbounds i8, ptr %245, i64 %248
  %250 = load i32, ptr %14, align 4, !tbaa !77
  %251 = load ptr, ptr %5, align 8, !tbaa !90
  %252 = getelementptr inbounds nuw %struct.CodingUnit, ptr %251, i32 0, i32 2
  %253 = load i32, ptr %252, align 8, !tbaa !127
  %254 = load ptr, ptr %8, align 8, !tbaa !60
  %255 = getelementptr inbounds nuw %struct.VVCSPS, ptr %254, i32 0, i32 9
  %256 = load i16, ptr %255, align 8, !tbaa !157
  %257 = zext i16 %256 to i32
  %258 = sub nsw i32 %257, 1
  %259 = xor i32 %258, -1
  %260 = and i32 %253, %259
  %261 = load i32, ptr %11, align 4, !tbaa !77
  %262 = ashr i32 %260, %261
  %263 = add nsw i32 %250, %262
  %264 = load i32, ptr %19, align 4, !tbaa !77
  %265 = mul nsw i32 %263, %264
  %266 = sext i32 %265 to i64
  %267 = getelementptr inbounds i8, ptr %249, i64 %266
  store ptr %267, ptr %21, align 8, !tbaa !143
  %268 = load i32, ptr %18, align 4, !tbaa !77
  %269 = load i32, ptr %12, align 4, !tbaa !77
  %270 = shl i32 %268, %269
  %271 = load ptr, ptr %22, align 8, !tbaa !143
  %272 = sext i32 %270 to i64
  %273 = getelementptr inbounds i8, ptr %271, i64 %272
  store ptr %273, ptr %22, align 8, !tbaa !143
  %274 = load ptr, ptr %22, align 8, !tbaa !143
  %275 = load i32, ptr %20, align 4, !tbaa !77
  %276 = load ptr, ptr %21, align 8, !tbaa !143
  %277 = load i32, ptr %19, align 4, !tbaa !77
  %278 = load i32, ptr %15, align 4, !tbaa !77
  %279 = load i32, ptr %18, align 4, !tbaa !77
  %280 = sub nsw i32 %278, %279
  %281 = load i32, ptr %12, align 4, !tbaa !77
  %282 = shl i32 %280, %281
  %283 = load i32, ptr %16, align 4, !tbaa !77
  call void @av_image_copy_plane(ptr noundef %274, i32 noundef %275, ptr noundef %276, i32 noundef %277, i32 noundef %282, i32 noundef %283)
  br label %284

284:                                              ; preds = %238, %128
  call void @llvm.lifetime.end.p0(i64 8, ptr %22) #8
  call void @llvm.lifetime.end.p0(i64 8, ptr %21) #8
  call void @llvm.lifetime.end.p0(i64 4, ptr %20) #8
  call void @llvm.lifetime.end.p0(i64 4, ptr %19) #8
  call void @llvm.lifetime.end.p0(i64 4, ptr %18) #8
  call void @llvm.lifetime.end.p0(i64 4, ptr %17) #8
  call void @llvm.lifetime.end.p0(i64 4, ptr %16) #8
  call void @llvm.lifetime.end.p0(i64 4, ptr %15) #8
  call void @llvm.lifetime.end.p0(i64 4, ptr %14) #8
  call void @llvm.lifetime.end.p0(i64 4, ptr %13) #8
  call void @llvm.lifetime.end.p0(i64 4, ptr %12) #8
  call void @llvm.lifetime.end.p0(i64 4, ptr %11) #8
  call void @llvm.lifetime.end.p0(i64 4, ptr %10) #8
  call void @llvm.lifetime.end.p0(i64 8, ptr %9) #8
  call void @llvm.lifetime.end.p0(i64 8, ptr %8) #8
  call void @llvm.lifetime.end.p0(i64 8, ptr %7) #8
  call void @llvm.lifetime.end.p0(i64 8, ptr %6) #8
  call void @llvm.lifetime.end.p0(i64 8, ptr %5) #8
  ret void
}