; Function Attrs: nounwind uwtable
define internal fastcc void @intra_block_copy(ptr readonly captures(none) %.4547736.val, ptr readonly captures(none) %.4580552.val, i32 noundef range(i32 0, 3) %0) unnamed_addr #2 {
  %2 = getelementptr inbounds nuw i8, ptr %.4580552.val, i64 1928
  %3 = load ptr, ptr %2, align 8, !tbaa !18
  %4 = getelementptr inbounds nuw i8, ptr %.4547736.val, i64 576
  %5 = getelementptr inbounds nuw i8, ptr %3, i64 8
  %6 = zext nneg i32 %0 to i64
  %7 = getelementptr inbounds nuw [3 x i8], ptr %5, i64 0, i64 %6
  %8 = load i8, ptr %7, align 1, !tbaa !84
  %9 = zext i8 %8 to i32
  %10 = getelementptr inbounds nuw i8, ptr %3, i64 11
  %11 = getelementptr inbounds nuw [3 x i8], ptr %10, i64 0, i64 %6
  %12 = load i8, ptr %11, align 1, !tbaa !84
  %13 = zext i8 %12 to i32
  %14 = getelementptr inbounds nuw i8, ptr %3, i64 20
  %15 = load i8, ptr %14, align 4, !tbaa !115
  %16 = zext i8 %15 to i32
  %17 = getelementptr inbounds nuw i8, ptr %.4547736.val, i64 4
  %18 = load i32, ptr %17, align 4, !tbaa !122
  %19 = ashr i32 %18, %9
  %20 = load i32, ptr %4, align 4, !tbaa !212
  %21 = add nuw nsw i32 %9, 4
  %22 = ashr i32 %20, %21
  %23 = add nsw i32 %22, %19
  %24 = getelementptr inbounds nuw i8, ptr %.4580552.val, i64 21980
  %25 = load i32, ptr %24, align 4, !tbaa !207
  %26 = ashr i32 %25, %9
  %27 = add nsw i32 %26, -1
  %28 = and i32 %27, %23
  %29 = getelementptr inbounds nuw i8, ptr %.4547736.val, i64 8
  %30 = load i32, ptr %29, align 8, !tbaa !121
  %31 = ashr i32 %30, %13
  %32 = getelementptr inbounds nuw i8, ptr %.4547736.val, i64 580
  %33 = load i32, ptr %32, align 4, !tbaa !214
  %34 = add nuw nsw i32 %13, 4
  %35 = ashr i32 %33, %34
  %36 = add nsw i32 %35, %31
  %37 = getelementptr inbounds nuw i8, ptr %3, i64 30
  %38 = load i8, ptr %37, align 2, !tbaa !105
  %39 = zext nneg i8 %38 to i32
  %40 = shl nuw i32 1, %39
  %41 = ashr i32 %40, %13
  %42 = add nsw i32 %41, -1
  %43 = and i32 %42, %36
  %44 = getelementptr inbounds nuw i8, ptr %.4547736.val, i64 12
  %45 = load i32, ptr %44, align 4, !tbaa !205
  %46 = ashr i32 %45, %9
  %47 = getelementptr inbounds nuw i8, ptr %.4547736.val, i64 16
  %48 = load i32, ptr %47, align 8, !tbaa !204
  %49 = ashr i32 %48, %13
  %50 = sub nsw i32 %26, %28
  %51 = icmp sgt i32 %46, %50
  %52 = tail call i32 @llvm.smin.i32(i32 %46, i32 %50)
  %53 = shl i32 %26, %16
  %54 = getelementptr inbounds nuw i8, ptr %.4580552.val, i64 1912
  %55 = load ptr, ptr %54, align 8, !tbaa !119
  %56 = getelementptr inbounds nuw i8, ptr %55, i64 64
  %57 = getelementptr inbounds nuw [8 x i32], ptr %56, i64 0, i64 %6
  %58 = load i32, ptr %57, align 4, !tbaa !90
  %59 = getelementptr inbounds nuw i8, ptr %.4580552.val, i64 21912
  %60 = getelementptr inbounds nuw [3 x ptr], ptr %59, i64 0, i64 %6
  %61 = load ptr, ptr %60, align 8, !tbaa !120
  %62 = shl i32 %28, %16
  %63 = sext i32 %62 to i64
  %64 = getelementptr inbounds i8, ptr %61, i64 %63
  %65 = getelementptr inbounds nuw i8, ptr %3, i64 32
  %66 = load i16, ptr %65, align 8, !tbaa !208
  %67 = zext i16 %66 to i32
  %68 = sub nsw i32 0, %67
  %69 = and i32 %30, %68
  %70 = ashr i32 %69, %13
  %71 = add nsw i32 %70, %43
  %72 = mul nsw i32 %71, %53
  %73 = sext i32 %72 to i64
  %74 = getelementptr inbounds i8, ptr %64, i64 %73
  %75 = getelementptr inbounds nuw [8 x ptr], ptr %55, i64 0, i64 %6
  %76 = load ptr, ptr %75, align 8, !tbaa !120
  %77 = mul nsw i32 %58, %31
  %78 = shl i32 %19, %16
  %79 = add nsw i32 %77, %78
  %80 = sext i32 %79 to i64
  %81 = getelementptr inbounds i8, ptr %76, i64 %80
  %82 = shl i32 %52, %16
  tail call void @av_image_copy_plane(ptr noundef %81, i32 noundef %58, ptr noundef %74, i32 noundef %53, i32 noundef %82, i32 noundef %49) #8
  br i1 %51, label %83, label %99

83:                                               ; preds = %1
  %84 = load ptr, ptr %60, align 8, !tbaa !120
  %85 = load i32, ptr %29, align 8, !tbaa !121
  %86 = load i16, ptr %65, align 8, !tbaa !208
  %87 = zext i16 %86 to i32
  %88 = sub nsw i32 0, %87
  %89 = and i32 %85, %88
  %90 = ashr i32 %89, %13
  %91 = add nsw i32 %90, %43
  %92 = mul nsw i32 %91, %53
  %93 = sext i32 %92 to i64
  %94 = getelementptr inbounds i8, ptr %84, i64 %93
  %95 = sext i32 %82 to i64
  %96 = getelementptr inbounds i8, ptr %81, i64 %95
  %97 = sub nsw i32 %46, %52
  %98 = shl i32 %97, %16
  tail call void @av_image_copy_plane(ptr noundef %96, i32 noundef %58, ptr noundef %94, i32 noundef %53, i32 noundef %98, i32 noundef %49) #8
  br label %99

99:                                               ; preds = %83, %1
  ret void
}